target datalayout = "e-m:e-p270:32:32-p271:32:32-p272:64:64-i64:64-i128:128-f80:128-n8:16:32:64-S128"
target triple = "x86_64-pc-linux-gnu"

%struct.ImVec2 = type { float, float }
%struct.ImVec4 = type { float, float, float, float }
%struct.ImVector.1 = type { i32, i32, ptr }
%struct.ImFont = type <{ %struct.ImVector.6, float, float, %struct.ImVector.1, %struct.ImVector.7, ptr, ptr, ptr, i16, i16, i16, i16, float, float, i8, [3 x i8], float, float, float, i32, [2 x i8], [2 x i8] }>
%struct.ImVector.6 = type { i32, i32, ptr }
%struct.ImVector.7 = type { i32, i32, ptr }
%struct.ImFontConfig = type { ptr, i32, i8, i32, float, i32, i32, i8, %struct.ImVec2, %struct.ImVec2, ptr, float, float, i8, i32, float, float, i16, [40 x i8], ptr }
%struct.ImFontAtlas = type <{ i32, [4 x i8], ptr, i32, i32, i8, [7 x i8], ptr, i8, i8, [6 x i8], ptr, ptr, i32, i32, %struct.ImVec2, %struct.ImVec2, %struct.ImVector.9, %struct.ImVector.10, %struct.ImVector.11, [64 x %struct.ImVec4], ptr, i32, i32, i32, [4 x i8] }>
%struct.ImVector.9 = type { i32, i32, ptr }
%struct.ImVector.10 = type { i32, i32, ptr }
%struct.ImVector.11 = type { i32, i32, ptr }

; Function Attrs: inlinehint mustprogress nounwind uwtable
define linkonce_odr dso_local noundef ptr @_ZN8ImVectorI12ImFontConfigE3endEv(ptr noundef nonnull align 8 dereferenceable(16) %0) #7 comdat align 2 {
  %2 = alloca ptr, align 8
  store ptr %0, ptr %2, align 8, !tbaa !302
  %3 = load ptr, ptr %2, align 8
  %4 = getelementptr inbounds nuw %struct.ImVector.11, ptr %3, i32 0, i32 2
  %5 = load ptr, ptr %4, align 8, !tbaa !306
  %6 = getelementptr inbounds nuw %struct.ImVector.11, ptr %3, i32 0, i32 0
  %7 = load i32, ptr %6, align 8, !tbaa !305
  %8 = sext i32 %7 to i64
  %9 = getelementptr inbounds %struct.ImFontConfig, ptr %5, i64 %8
  ret ptr %9
}

; Function Attrs: inlinehint mustprogress nounwind uwtable
define linkonce_odr dso_local noundef ptr @_ZN8ImVectorI12ImFontConfigE5beginEv(ptr noundef nonnull align 8 dereferenceable(16) %0) #7 comdat align 2 {
  %2 = alloca ptr, align 8
  store ptr %0, ptr %2, align 8, !tbaa !302
  %3 = load ptr, ptr %2, align 8
  %4 = getelementptr inbounds nuw %struct.ImVector.11, ptr %3, i32 0, i32 2
  %5 = load ptr, ptr %4, align 8, !tbaa !306
  ret ptr %5
}

; Function Attrs: mustprogress uwtable
define dso_local void @_Z35ImFontAtlasUpdateConfigDataPointersP11ImFontAtlas(ptr noundef %0) #6 {
  %2 = alloca ptr, align 8
  %3 = alloca ptr, align 8
  %4 = alloca ptr, align 8
  %5 = alloca ptr, align 8
  %6 = alloca ptr, align 8
  %7 = alloca ptr, align 8
  store ptr %0, ptr %2, align 8, !tbaa !281
  call void @llvm.lifetime.start.p0(i64 8, ptr %3) #17
  %8 = load ptr, ptr %2, align 8, !tbaa !281
  %9 = getelementptr inbounds nuw %struct.ImFontAtlas, ptr %8, i32 0, i32 19
  store ptr %9, ptr %3, align 8, !tbaa !302
  call void @llvm.lifetime.start.p0(i64 8, ptr %4) #17
  %10 = load ptr, ptr %3, align 8, !tbaa !302
  %11 = call noundef ptr @_ZN8ImVectorI12ImFontConfigE5beginEv(ptr noundef nonnull align 8 dereferenceable(16) %10)
  store ptr %11, ptr %4, align 8, !tbaa !272
  call void @llvm.lifetime.start.p0(i64 8, ptr %5) #17
  %12 = load ptr, ptr %3, align 8, !tbaa !302
  %13 = call noundef ptr @_ZN8ImVectorI12ImFontConfigE3endEv(ptr noundef nonnull align 8 dereferenceable(16) %12)
  store ptr %13, ptr %5, align 8, !tbaa !272
  br label %14

14:                                               ; preds = %39, %1
  %15 = load ptr, ptr %4, align 8, !tbaa !272
  %16 = load ptr, ptr %5, align 8, !tbaa !272
  %17 = icmp ne ptr %15, %16
  br i1 %17, label %19, label %18

18:                                               ; preds = %14
  call void @llvm.lifetime.end.p0(i64 8, ptr %5) #17
  call void @llvm.lifetime.end.p0(i64 8, ptr %4) #17
  call void @llvm.lifetime.end.p0(i64 8, ptr %3) #17
  br label %42

19:                                               ; preds = %14
  call void @llvm.lifetime.start.p0(i64 8, ptr %6) #17
  %20 = load ptr, ptr %4, align 8, !tbaa !272
  store ptr %20, ptr %6, align 8, !tbaa !272
  call void @llvm.lifetime.start.p0(i64 8, ptr %7) #17
  %21 = load ptr, ptr %6, align 8, !tbaa !272
  %22 = getelementptr inbounds nuw %struct.ImFontConfig, ptr %21, i32 0, i32 19
  %23 = load ptr, ptr %22, align 8, !tbaa !328
  store ptr %23, ptr %7, align 8, !tbaa !169
  %24 = load ptr, ptr %6, align 8, !tbaa !272
  %25 = getelementptr inbounds nuw %struct.ImFontConfig, ptr %24, i32 0, i32 13
  %26 = load i8, ptr %25, align 8, !tbaa !327, !range !128, !noundef !129
  %27 = trunc i8 %26 to i1
  br i1 %27, label %34, label %28

28:                                               ; preds = %19
  %29 = load ptr, ptr %6, align 8, !tbaa !272
  %30 = load ptr, ptr %7, align 8, !tbaa !169
  %31 = getelementptr inbounds nuw %struct.ImFont, ptr %30, i32 0, i32 7
  store ptr %29, ptr %31, align 8, !tbaa !309
  %32 = load ptr, ptr %7, align 8, !tbaa !169
  %33 = getelementptr inbounds nuw %struct.ImFont, ptr %32, i32 0, i32 8
  store i16 0, ptr %33, align 8, !tbaa !312
  br label %34

34:                                               ; preds = %28, %19
  %35 = load ptr, ptr %7, align 8, !tbaa !169
  %36 = getelementptr inbounds nuw %struct.ImFont, ptr %35, i32 0, i32 8
  %37 = load i16, ptr %36, align 8, !tbaa !312
  %38 = add i16 %37, 1
  store i16 %38, ptr %36, align 8, !tbaa !312
  call void @llvm.lifetime.end.p0(i64 8, ptr %7) #17
  call void @llvm.lifetime.end.p0(i64 8, ptr %6) #17
  br label %39

39:                                               ; preds = %34
  %40 = load ptr, ptr %4, align 8, !tbaa !272
  %41 = getelementptr inbounds nuw %struct.ImFontConfig, ptr %40, i32 1
  store ptr %41, ptr %4, align 8, !tbaa !272
  br label %14

42:                                               ; preds = %18
  ret void
}