; Function Attrs: mustprogress nofree norecurse nosync nounwind memory(readwrite, inaccessiblemem: none) uwtable
define dso_local void @_Z35ImFontAtlasUpdateConfigDataPointersP11ImFontAtlas(ptr noundef readonly captures(none) %0) local_unnamed_addr #20 {
  %2 = getelementptr inbounds nuw i8, ptr %0, i64 120
  %3 = getelementptr inbounds nuw i8, ptr %0, i64 128
  %4 = load ptr, ptr %3, align 8, !tbaa !243
  %5 = load i32, ptr %2, align 8, !tbaa !254
  %6 = sext i32 %5 to i64
  %7 = getelementptr inbounds %struct.ImFontConfig, ptr %4, i64 %6
  %.not13 = icmp eq i32 %5, 0
  br i1 %.not13, label %._crit_edge, label %.lr.ph

._crit_edge:                                      ; preds = %16, %1
  ret void

.lr.ph:                                           ; preds = %1, %16
  %.014 = phi ptr [ %19, %16 ], [ %4, %1 ]
  %8 = getelementptr inbounds nuw i8, ptr %.014, i64 136
  %9 = load ptr, ptr %8, align 8, !tbaa !279
  %10 = getelementptr inbounds nuw i8, ptr %.014, i64 72
  %11 = load i8, ptr %10, align 8, !tbaa !275, !range !256, !noundef !257
  %12 = trunc nuw i8 %11 to i1
  br i1 %12, label %.lr.ph._crit_edge, label %14

.lr.ph._crit_edge:                                ; preds = %.lr.ph
  %.phi.trans.insert = getelementptr inbounds nuw i8, ptr %9, i64 80
  %.pre = load i16, ptr %.phi.trans.insert, align 8, !tbaa !262
  %13 = add i16 %.pre, 1
  br label %16

14:                                               ; preds = %.lr.ph
  %15 = getelementptr inbounds nuw i8, ptr %9, i64 72
  store ptr %.014, ptr %15, align 8, !tbaa !261
  br label %16

16:                                               ; preds = %.lr.ph._crit_edge, %14
  %17 = phi i16 [ %13, %.lr.ph._crit_edge ], [ 1, %14 ]
  %18 = getelementptr inbounds nuw i8, ptr %9, i64 80
  store i16 %17, ptr %18, align 8, !tbaa !262
  %19 = getelementptr inbounds nuw i8, ptr %.014, i64 144
  %.not = icmp eq ptr %19, %7
  br i1 %.not, label %._crit_edge, label %.lr.ph
}